target datalayout = "e-m:e-p270:32:32-p271:32:32-p272:64:64-i64:64-i128:128-f80:128-n8:16:32:64-S128"
target triple = "x86_64-pc-linux-gnu"

%"class.std::__cxx11::basic_string" = type { %"struct.std::__cxx11::basic_string<char>::_Alloc_hider", i64, %union.anon }
%"struct.std::__cxx11::basic_string<char>::_Alloc_hider" = type { ptr }
%union.anon = type { i64, [8 x i8] }
%class.cmLinkItem = type { %"class.std::__cxx11::basic_string", ptr, ptr, %"class.std::__cxx11::basic_string", i8, %class.cmListFileBacktrace }
%class.cmListFileBacktrace = type { %class.cmConstStack }
%class.cmConstStack = type { %"class.std::shared_ptr" }
%"class.std::shared_ptr" = type { %"class.std::__shared_ptr" }
%"class.std::__shared_ptr" = type { ptr, %"class.std::__shared_count" }
%"class.std::__shared_count" = type { ptr }

; Function Attrs: mustprogress nounwind uwtable
define available_externally noundef ptr @_ZNKSt7__cxx1112basic_stringIcSt11char_traitsIcESaIcEE7_M_dataEv(ptr noundef nonnull align 8 dereferenceable(32) %0) #6 align 2 {
  %2 = alloca ptr, align 8
  store ptr %0, ptr %2, align 8, !tbaa !20
  %3 = load ptr, ptr %2, align 8
  %4 = getelementptr inbounds nuw %"class.std::__cxx11::basic_string", ptr %3, i32 0, i32 0
  %5 = getelementptr inbounds nuw %"struct.std::__cxx11::basic_string<char>::_Alloc_hider", ptr %4, i32 0, i32 0
  %6 = load ptr, ptr %5, align 8, !tbaa !97
  ret ptr %6
}

; Function Attrs: mustprogress nounwind uwtable
define linkonce_odr dso_local noundef i32 @_ZNSt11char_traitsIcE7compareEPKcS2_m(ptr noundef %0, ptr noundef %1, i64 noundef %2) #6 comdat align 2 {
  %4 = alloca i32, align 4
  %5 = alloca ptr, align 8
  %6 = alloca ptr, align 8
  %7 = alloca i64, align 8
  store ptr %0, ptr %5, align 8, !tbaa !22
  store ptr %1, ptr %6, align 8, !tbaa !22
  store i64 %2, ptr %7, align 8, !tbaa !17
  %8 = load i64, ptr %7, align 8, !tbaa !17
  %9 = icmp eq i64 %8, 0
  br i1 %9, label %10, label %11

10:                                               ; preds = %3
  store i32 0, ptr %4, align 4
  br label %16

11:                                               ; preds = %3
  %12 = load ptr, ptr %5, align 8, !tbaa !22
  %13 = load ptr, ptr %6, align 8, !tbaa !22
  %14 = load i64, ptr %7, align 8, !tbaa !17
  %15 = call i32 @memcmp(ptr noundef %12, ptr noundef %13, i64 noundef %14) #3
  store i32 %15, ptr %4, align 4
  br label %16

16:                                               ; preds = %11, %10
  %17 = load i32, ptr %4, align 4
  ret i32 %17
}

; Function Attrs: mustprogress nounwind uwtable
define available_externally noundef ptr @_ZNKSt7__cxx1112basic_stringIcSt11char_traitsIcESaIcEE4dataEv(ptr noundef nonnull align 8 dereferenceable(32) %0) #6 align 2 {
  %2 = alloca ptr, align 8
  store ptr %0, ptr %2, align 8, !tbaa !20
  %3 = load ptr, ptr %2, align 8
  %4 = call noundef ptr @_ZNKSt7__cxx1112basic_stringIcSt11char_traitsIcESaIcEE7_M_dataEv(ptr noundef nonnull align 8 dereferenceable(32) %3)
  ret ptr %4
}

; Function Attrs: mustprogress nounwind uwtable
define available_externally noundef i64 @_ZNKSt7__cxx1112basic_stringIcSt11char_traitsIcESaIcEE4sizeEv(ptr noundef nonnull align 8 dereferenceable(32) %0) #6 align 2 {
  %2 = alloca ptr, align 8
  store ptr %0, ptr %2, align 8, !tbaa !20
  %3 = load ptr, ptr %2, align 8
  %4 = getelementptr inbounds nuw %"class.std::__cxx11::basic_string", ptr %3, i32 0, i32 1
  %5 = load i64, ptr %4, align 8, !tbaa !98
  ret i64 %5
}

; Function Attrs: inlinehint mustprogress nounwind uwtable
define linkonce_odr dso_local noundef zeroext i1 @_ZSteqIcEN9__gnu_cxx11__enable_ifIXsr9__is_charIT_EE7__valueEbE6__typeERKNSt7__cxx1112basic_stringIS2_St11char_traitsIS2_ESaIS2_EEESC_(ptr noundef nonnull align 8 dereferenceable(32) %0, ptr noundef nonnull align 8 dereferenceable(32) %1) #7 comdat {
  %3 = alloca ptr, align 8
  %4 = alloca ptr, align 8
  store ptr %0, ptr %3, align 8, !tbaa !20
  store ptr %1, ptr %4, align 8, !tbaa !20
  %5 = load ptr, ptr %3, align 8, !tbaa !20
  %6 = call noundef i64 @_ZNKSt7__cxx1112basic_stringIcSt11char_traitsIcESaIcEE4sizeEv(ptr noundef nonnull align 8 dereferenceable(32) %5) #3
  %7 = load ptr, ptr %4, align 8, !tbaa !20
  %8 = call noundef i64 @_ZNKSt7__cxx1112basic_stringIcSt11char_traitsIcESaIcEE4sizeEv(ptr noundef nonnull align 8 dereferenceable(32) %7) #3
  %9 = icmp eq i64 %6, %8
  br i1 %9, label %10, label %20

10:                                               ; preds = %2
  %11 = load ptr, ptr %3, align 8, !tbaa !20
  %12 = call noundef ptr @_ZNKSt7__cxx1112basic_stringIcSt11char_traitsIcESaIcEE4dataEv(ptr noundef nonnull align 8 dereferenceable(32) %11) #3
  %13 = load ptr, ptr %4, align 8, !tbaa !20
  %14 = call noundef ptr @_ZNKSt7__cxx1112basic_stringIcSt11char_traitsIcESaIcEE4dataEv(ptr noundef nonnull align 8 dereferenceable(32) %13) #3
  %15 = load ptr, ptr %3, align 8, !tbaa !20
  %16 = call noundef i64 @_ZNKSt7__cxx1112basic_stringIcSt11char_traitsIcESaIcEE4sizeEv(ptr noundef nonnull align 8 dereferenceable(32) %15) #3
  %17 = call noundef i32 @_ZNSt11char_traitsIcE7compareEPKcS2_m(ptr noundef %12, ptr noundef %14, i64 noundef %16)
  %18 = icmp ne i32 %17, 0
  %19 = xor i1 %18, true
  br label %20

20:                                               ; preds = %10, %2
  %21 = phi i1 [ false, %2 ], [ %19, %10 ]
  ret i1 %21
}

; Function Attrs: mustprogress nounwind uwtable
define dso_local noundef zeroext i1 @_ZeqRK10cmLinkItemS1_(ptr noundef nonnull align 8 dereferenceable(104) %0, ptr noundef nonnull align 8 dereferenceable(104) %1) #6 {
  %3 = alloca ptr, align 8
  %4 = alloca ptr, align 8
  store ptr %0, ptr %3, align 8, !tbaa !26
  store ptr %1, ptr %4, align 8, !tbaa !26
  %5 = load ptr, ptr %3, align 8, !tbaa !26
  %6 = getelementptr inbounds nuw %class.cmLinkItem, ptr %5, i32 0, i32 1
  %7 = load ptr, ptr %6, align 8, !tbaa !32
  %8 = load ptr, ptr %4, align 8, !tbaa !26
  %9 = getelementptr inbounds nuw %class.cmLinkItem, ptr %8, i32 0, i32 1
  %10 = load ptr, ptr %9, align 8, !tbaa !32
  %11 = icmp eq ptr %7, %10
  br i1 %11, label %12, label %30

12:                                               ; preds = %2
  %13 = load ptr, ptr %3, align 8, !tbaa !26
  %14 = getelementptr inbounds nuw %class.cmLinkItem, ptr %13, i32 0, i32 0
  %15 = load ptr, ptr %4, align 8, !tbaa !26
  %16 = getelementptr inbounds nuw %class.cmLinkItem, ptr %15, i32 0, i32 0
  %17 = call noundef zeroext i1 @_ZSteqIcEN9__gnu_cxx11__enable_ifIXsr9__is_charIT_EE7__valueEbE6__typeERKNSt7__cxx1112basic_stringIS2_St11char_traitsIS2_ESaIS2_EEESC_(ptr noundef nonnull align 8 dereferenceable(32) %14, ptr noundef nonnull align 8 dereferenceable(32) %16) #3
  br i1 %17, label %18, label %30

18:                                               ; preds = %12
  %19 = load ptr, ptr %3, align 8, !tbaa !26
  %20 = getelementptr inbounds nuw %class.cmLinkItem, ptr %19, i32 0, i32 4
  %21 = load i8, ptr %20, align 8, !tbaa !48, !range !46, !noundef !47
  %22 = trunc i8 %21 to i1
  %23 = zext i1 %22 to i32
  %24 = load ptr, ptr %4, align 8, !tbaa !26
  %25 = getelementptr inbounds nuw %class.cmLinkItem, ptr %24, i32 0, i32 4
  %26 = load i8, ptr %25, align 8, !tbaa !48, !range !46, !noundef !47
  %27 = trunc i8 %26 to i1
  %28 = zext i1 %27 to i32
  %29 = icmp eq i32 %23, %28
  br label %30

30:                                               ; preds = %18, %12, %2
  %31 = phi i1 [ false, %12 ], [ false, %2 ], [ %29, %18 ]
  ret i1 %31
}